; Function Attrs: mustprogress nofree norecurse nosync nounwind willreturn memory(readwrite, inaccessiblemem: none) uwtable
define internal void @"_ZN3pro7details25invocation_dispatcher_refIPZN49ProxyInvocationTests_TestRecursiveDefinition_Test8TestBodyEvE3$_0N12_GLOBAL__N_14spec4CallIJFvRiEEE4__FTEvJS8_EEET1_PKSt4byteDpT2_"(ptr nocapture noundef readonly %0, ptr nocapture noundef nonnull readonly align 4 dereferenceable(4) %1) #12 {
  %3 = load ptr, ptr %0, align 8
  %.val = load ptr, ptr %3, align 8
  %.val2 = load i32, ptr %1, align 4
  %4 = load i32, ptr %.val, align 4
  %5 = add nsw i32 %4, %.val2
  store i32 %5, ptr %.val, align 4
  ret void
}